target datalayout = "e-m:e-p270:32:32-p271:32:32-p272:64:64-i64:64-i128:128-f80:128-n8:16:32:64-S128"
target triple = "x86_64-pc-linux-gnu"

%struct._e_guid_t = type { i32, i16, i16, [8 x i8] }
%struct._dcerpc_info = type { ptr, i32, i64, i8, i8, i8, i32, i32, i32, i32, i32, i32, i32, i32, ptr, ptr, ptr, ptr, %struct.anon }
%struct.anon = type { i8, ptr, ptr, ptr, i8 }
%struct._dcerpc_call_value = type { %struct._e_guid_t, i16, %struct._e_guid_t, i16, i32, %struct.nstime_t, i32, i32, ptr, ptr, ptr, i32 }
%struct.nstime_t = type { i64, i32 }

@hf_netlogon_claims_set_size = internal global i32 0, align 4
@hf_netlogon_claims_compression_format = internal global i32 0, align 4
@hf_netlogon_claims_set_uncompressed_size = internal global i32 0, align 4
@hf_netlogon_claims_reserved_type = internal global i32 0, align 4
@hf_netlogon_claims_reserved_field_size = internal global i32 0, align 4
@.str.895 = private unnamed_addr constant [25 x i8] c"Claims Set Uncompressed:\00", align 1
@.str.896 = private unnamed_addr constant [18 x i8] c"Claims Set LZNT1:\00", align 1
@.str.897 = private unnamed_addr constant [19 x i8] c"Claims Set XPRESS:\00", align 1
@.str.898 = private unnamed_addr constant [24 x i8] c"Claims Set XPRESS+HUFF:\00", align 1
@.str.899 = private unnamed_addr constant [32 x i8] c"Claims Set Unknown Compression:\00", align 1
@.str.900 = private unnamed_addr constant [16 x i8] c"Reserved Field:\00", align 1

; Function Attrs: null_pointer_is_valid sspstrong uwtable
define internal i32 @netlogon_dissect_CLAIMS_SET_METADATA(ptr noundef %0, i32 noundef %1, ptr noundef %2, ptr noundef %3, ptr noundef %4, ptr noundef %5) #0 {
  %7 = alloca i32, align 4
  %8 = alloca ptr, align 8
  %9 = alloca i32, align 4
  %10 = alloca ptr, align 8
  %11 = alloca ptr, align 8
  %12 = alloca ptr, align 8
  %13 = alloca ptr, align 8
  %14 = alloca i32, align 4
  %15 = alloca i32, align 4
  %16 = alloca i32, align 4
  store ptr %0, ptr %8, align 8
  store i32 %1, ptr %9, align 4
  store ptr %2, ptr %10, align 8
  store ptr %3, ptr %11, align 8
  store ptr %4, ptr %12, align 8
  store ptr %5, ptr %13, align 8
  call void @llvm.lifetime.start.p0(i64 4, ptr %14) #15
  call void @llvm.lifetime.start.p0(i64 4, ptr %15) #15
  store i32 0, ptr %15, align 4
  %17 = load ptr, ptr %12, align 8
  %18 = getelementptr inbounds nuw %struct._dcerpc_info, ptr %17, i32 0, i32 4
  %19 = load i8, ptr %18, align 1, !range !6, !noundef !7
  %20 = trunc i8 %19 to i1
  br i1 %20, label %21, label %23

21:                                               ; preds = %6
  %22 = load i32, ptr %9, align 4
  store i32 %22, ptr %7, align 4
  store i32 1, ptr %16, align 4
  br label %187

23:                                               ; preds = %6
  %24 = load ptr, ptr %8, align 8
  %25 = load i32, ptr %9, align 4
  %26 = load ptr, ptr %10, align 8
  %27 = load ptr, ptr %11, align 8
  %28 = load ptr, ptr %12, align 8
  %29 = load ptr, ptr %13, align 8
  %30 = load i32, ptr @hf_netlogon_claims_set_size, align 4
  %31 = call i32 @dissect_ndr_uint32(ptr noundef %24, i32 noundef %25, ptr noundef %26, ptr noundef %27, ptr noundef %28, ptr noundef %29, i32 noundef %30, ptr noundef null)
  store i32 %31, ptr %9, align 4
  %32 = load ptr, ptr %12, align 8
  %33 = getelementptr inbounds nuw %struct._dcerpc_info, ptr %32, i32 0, i32 14
  %34 = load ptr, ptr %33, align 8
  %35 = getelementptr inbounds nuw %struct._dcerpc_call_value, ptr %34, i32 0, i32 11
  %36 = load i32, ptr %35, align 8
  %37 = and i32 %36, 1
  %38 = icmp ne i32 %37, 0
  br i1 %38, label %39, label %54

39:                                               ; preds = %23
  %40 = load ptr, ptr %12, align 8
  %41 = getelementptr inbounds nuw %struct._dcerpc_info, ptr %40, i32 0, i32 4
  %42 = load i8, ptr %41, align 1, !range !6, !noundef !7
  %43 = trunc i8 %42 to i1
  br i1 %43, label %53, label %44

44:                                               ; preds = %39
  %45 = load i32, ptr %9, align 4
  %46 = and i32 %45, 7
  %47 = icmp ne i32 %46, 0
  br i1 %47, label %48, label %52

48:                                               ; preds = %44
  %49 = load i32, ptr %9, align 4
  %50 = and i32 %49, -8
  %51 = add i32 %50, 8
  store i32 %51, ptr %9, align 4
  br label %52

52:                                               ; preds = %48, %44
  br label %53

53:                                               ; preds = %52, %39
  br label %69

54:                                               ; preds = %23
  %55 = load ptr, ptr %12, align 8
  %56 = getelementptr inbounds nuw %struct._dcerpc_info, ptr %55, i32 0, i32 4
  %57 = load i8, ptr %56, align 1, !range !6, !noundef !7
  %58 = trunc i8 %57 to i1
  br i1 %58, label %68, label %59

59:                                               ; preds = %54
  %60 = load i32, ptr %9, align 4
  %61 = and i32 %60, 3
  %62 = icmp ne i32 %61, 0
  br i1 %62, label %63, label %67

63:                                               ; preds = %59
  %64 = load i32, ptr %9, align 4
  %65 = and i32 %64, -4
  %66 = add i32 %65, 4
  store i32 %66, ptr %9, align 4
  br label %67

67:                                               ; preds = %63, %59
  br label %68

68:                                               ; preds = %67, %54
  br label %69

69:                                               ; preds = %68, %53
  %70 = load ptr, ptr %12, align 8
  %71 = getelementptr inbounds nuw %struct._dcerpc_info, ptr %70, i32 0, i32 14
  %72 = load ptr, ptr %71, align 8
  %73 = getelementptr inbounds nuw %struct._dcerpc_call_value, ptr %72, i32 0, i32 11
  %74 = load i32, ptr %73, align 8
  %75 = and i32 %74, 1
  %76 = icmp ne i32 %75, 0
  br i1 %76, label %77, label %90

77:                                               ; preds = %69
  %78 = load i32, ptr %9, align 4
  %79 = add i32 %78, 8
  store i32 %79, ptr %14, align 4
  %80 = load ptr, ptr %8, align 8
  %81 = load i32, ptr %14, align 4
  %82 = load ptr, ptr %13, align 8
  %83 = getelementptr i8, ptr %82, i64 0
  %84 = load i8, ptr %83, align 1
  %85 = zext i8 %84 to i32
  %86 = and i32 %85, 16
  %87 = icmp ne i32 %86, 0
  %88 = select i1 %87, i32 -2147483648, i32 0
  %89 = call i32 @tvb_get_uint32(ptr noundef %80, i32 noundef %81, i32 noundef %88)
  store i32 %89, ptr %15, align 4
  br label %104

90:                                               ; preds = %69
  %91 = load i32, ptr %9, align 4
  %92 = add i32 %91, 4
  store i32 %92, ptr %14, align 4
  %93 = load ptr, ptr %8, align 8
  %94 = load i32, ptr %14, align 4
  %95 = load ptr, ptr %13, align 8
  %96 = getelementptr i8, ptr %95, i64 0
  %97 = load i8, ptr %96, align 1
  %98 = zext i8 %97 to i32
  %99 = and i32 %98, 16
  %100 = icmp ne i32 %99, 0
  %101 = select i1 %100, i32 -2147483648, i32 0
  %102 = call zeroext i16 @tvb_get_uint16(ptr noundef %93, i32 noundef %94, i32 noundef %101)
  %103 = zext i16 %102 to i32
  store i32 %103, ptr %15, align 4
  br label %104

104:                                              ; preds = %90, %77
  %105 = load i32, ptr %15, align 4
  switch i32 %105, label %138 [
    i32 0, label %106
    i32 2, label %114
    i32 3, label %122
    i32 4, label %130
  ]

106:                                              ; preds = %104
  %107 = load ptr, ptr %8, align 8
  %108 = load i32, ptr %9, align 4
  %109 = load ptr, ptr %10, align 8
  %110 = load ptr, ptr %11, align 8
  %111 = load ptr, ptr %12, align 8
  %112 = load ptr, ptr %13, align 8
  %113 = call i32 @dissect_ndr_pointer(ptr noundef %107, i32 noundef %108, ptr noundef %109, ptr noundef %110, ptr noundef %111, ptr noundef %112, ptr noundef @netlogon_dissect_CLAIMS_SET_ucarray_0, i32 noundef 2, ptr noundef @.str.895, i32 noundef -1)
  store i32 %113, ptr %9, align 4
  br label %146

114:                                              ; preds = %104
  %115 = load ptr, ptr %8, align 8
  %116 = load i32, ptr %9, align 4
  %117 = load ptr, ptr %10, align 8
  %118 = load ptr, ptr %11, align 8
  %119 = load ptr, ptr %12, align 8
  %120 = load ptr, ptr %13, align 8
  %121 = call i32 @dissect_ndr_pointer(ptr noundef %115, i32 noundef %116, ptr noundef %117, ptr noundef %118, ptr noundef %119, ptr noundef %120, ptr noundef @netlogon_dissect_CLAIMS_SET_ucarray_2, i32 noundef 2, ptr noundef @.str.896, i32 noundef -1)
  store i32 %121, ptr %9, align 4
  br label %146

122:                                              ; preds = %104
  %123 = load ptr, ptr %8, align 8
  %124 = load i32, ptr %9, align 4
  %125 = load ptr, ptr %10, align 8
  %126 = load ptr, ptr %11, align 8
  %127 = load ptr, ptr %12, align 8
  %128 = load ptr, ptr %13, align 8
  %129 = call i32 @dissect_ndr_pointer(ptr noundef %123, i32 noundef %124, ptr noundef %125, ptr noundef %126, ptr noundef %127, ptr noundef %128, ptr noundef @netlogon_dissect_CLAIMS_SET_ucarray_3, i32 noundef 2, ptr noundef @.str.897, i32 noundef -1)
  store i32 %129, ptr %9, align 4
  br label %146

130:                                              ; preds = %104
  %131 = load ptr, ptr %8, align 8
  %132 = load i32, ptr %9, align 4
  %133 = load ptr, ptr %10, align 8
  %134 = load ptr, ptr %11, align 8
  %135 = load ptr, ptr %12, align 8
  %136 = load ptr, ptr %13, align 8
  %137 = call i32 @dissect_ndr_pointer(ptr noundef %131, i32 noundef %132, ptr noundef %133, ptr noundef %134, ptr noundef %135, ptr noundef %136, ptr noundef @netlogon_dissect_CLAIMS_SET_ucarray_4, i32 noundef 2, ptr noundef @.str.898, i32 noundef -1)
  store i32 %137, ptr %9, align 4
  br label %146

138:                                              ; preds = %104
  %139 = load ptr, ptr %8, align 8
  %140 = load i32, ptr %9, align 4
  %141 = load ptr, ptr %10, align 8
  %142 = load ptr, ptr %11, align 8
  %143 = load ptr, ptr %12, align 8
  %144 = load ptr, ptr %13, align 8
  %145 = call i32 @dissect_ndr_pointer(ptr noundef %139, i32 noundef %140, ptr noundef %141, ptr noundef %142, ptr noundef %143, ptr noundef %144, ptr noundef @netlogon_dissect_CLAIMS_SET_ucarray_U, i32 noundef 2, ptr noundef @.str.899, i32 noundef -1)
  store i32 %145, ptr %9, align 4
  br label %146

146:                                              ; preds = %138, %130, %122, %114, %106
  %147 = load ptr, ptr %8, align 8
  %148 = load i32, ptr %9, align 4
  %149 = load ptr, ptr %10, align 8
  %150 = load ptr, ptr %11, align 8
  %151 = load ptr, ptr %12, align 8
  %152 = load ptr, ptr %13, align 8
  %153 = load i32, ptr @hf_netlogon_claims_compression_format, align 4
  %154 = call i32 @dissect_ndr_uint1632(ptr noundef %147, i32 noundef %148, ptr noundef %149, ptr noundef %150, ptr noundef %151, ptr noundef %152, i32 noundef %153, ptr noundef null)
  store i32 %154, ptr %9, align 4
  %155 = load ptr, ptr %8, align 8
  %156 = load i32, ptr %9, align 4
  %157 = load ptr, ptr %10, align 8
  %158 = load ptr, ptr %11, align 8
  %159 = load ptr, ptr %12, align 8
  %160 = load ptr, ptr %13, align 8
  %161 = load i32, ptr @hf_netlogon_claims_set_uncompressed_size, align 4
  %162 = call i32 @dissect_ndr_uint32(ptr noundef %155, i32 noundef %156, ptr noundef %157, ptr noundef %158, ptr noundef %159, ptr noundef %160, i32 noundef %161, ptr noundef null)
  store i32 %162, ptr %9, align 4
  %163 = load ptr, ptr %8, align 8
  %164 = load i32, ptr %9, align 4
  %165 = load ptr, ptr %10, align 8
  %166 = load ptr, ptr %11, align 8
  %167 = load ptr, ptr %12, align 8
  %168 = load ptr, ptr %13, align 8
  %169 = load i32, ptr @hf_netlogon_claims_reserved_type, align 4
  %170 = call i32 @dissect_ndr_uint16(ptr noundef %163, i32 noundef %164, ptr noundef %165, ptr noundef %166, ptr noundef %167, ptr noundef %168, i32 noundef %169, ptr noundef null)
  store i32 %170, ptr %9, align 4
  %171 = load ptr, ptr %8, align 8
  %172 = load i32, ptr %9, align 4
  %173 = load ptr, ptr %10, align 8
  %174 = load ptr, ptr %11, align 8
  %175 = load ptr, ptr %12, align 8
  %176 = load ptr, ptr %13, align 8
  %177 = load i32, ptr @hf_netlogon_claims_reserved_field_size, align 4
  %178 = call i32 @dissect_ndr_uint32(ptr noundef %171, i32 noundef %172, ptr noundef %173, ptr noundef %174, ptr noundef %175, ptr noundef %176, i32 noundef %177, ptr noundef null)
  store i32 %178, ptr %9, align 4
  %179 = load ptr, ptr %8, align 8
  %180 = load i32, ptr %9, align 4
  %181 = load ptr, ptr %10, align 8
  %182 = load ptr, ptr %11, align 8
  %183 = load ptr, ptr %12, align 8
  %184 = load ptr, ptr %13, align 8
  %185 = call i32 @dissect_ndr_pointer(ptr noundef %179, i32 noundef %180, ptr noundef %181, ptr noundef %182, ptr noundef %183, ptr noundef %184, ptr noundef @netlogon_dissect_BYTE_array, i32 noundef 2, ptr noundef @.str.900, i32 noundef -1)
  store i32 %185, ptr %9, align 4
  %186 = load i32, ptr %9, align 4
  store i32 %186, ptr %7, align 4
  store i32 1, ptr %16, align 4
  br label %187

187:                                              ; preds = %146, %21
  call void @llvm.lifetime.end.p0(i64 4, ptr %15) #15
  call void @llvm.lifetime.end.p0(i64 4, ptr %14) #15
  %188 = load i32, ptr %7, align 4
  ret i32 %188
}