; Function Attrs: null_pointer_is_valid sspstrong uwtable
define internal i32 @netlogon_dissect_CLAIMS_SET_METADATA(ptr noundef %0, i32 noundef %1, ptr noundef %2, ptr noundef %3, ptr noundef %4, ptr noundef %5) #0 {
  %7 = getelementptr inbounds nuw i8, ptr %4, i64 25
  %8 = load i8, ptr %7, align 1, !range !6, !noundef !7
  %9 = trunc nuw i8 %8 to i1
  br i1 %9, label %58, label %10

10:                                               ; preds = %6
  %11 = load i32, ptr @hf_netlogon_claims_set_size, align 4
  %12 = tail call i32 @dissect_ndr_uint32(ptr noundef %0, i32 noundef %1, ptr noundef %2, ptr noundef %3, ptr noundef %4, ptr noundef %5, i32 noundef %11, ptr noundef null)
  %13 = getelementptr inbounds nuw i8, ptr %4, i64 64
  %14 = load ptr, ptr %13, align 8
  %15 = getelementptr inbounds nuw i8, ptr %14, i64 96
  %16 = load i32, ptr %15, align 8
  %17 = and i32 %16, 1
  %.not = icmp eq i32 %17, 0
  %18 = load i8, ptr %7, align 1, !range !6, !noundef !7
  %19 = trunc nuw i8 %18 to i1
  %20 = load i8, ptr %5, align 1
  %21 = and i8 %20, 16
  %22 = zext nneg i8 %21 to i32
  %23 = shl nuw i32 %22, 27
  br i1 %.not, label %30, label %24

24:                                               ; preds = %10
  %25 = and i32 %12, 7
  %.not89 = icmp eq i32 %25, 0
  %or.cond = select i1 %19, i1 true, i1 %.not89
  %26 = and i32 %12, -8
  %27 = add i32 %26, 8
  %.087 = select i1 %or.cond, i32 %12, i32 %27
  %28 = add i32 %.087, 8
  %29 = tail call i32 @tvb_get_uint32(ptr noundef %0, i32 noundef %28, i32 noundef %23)
  br label %37

30:                                               ; preds = %10
  %31 = and i32 %12, 3
  %.not88 = icmp eq i32 %31, 0
  %or.cond93 = select i1 %19, i1 true, i1 %.not88
  %32 = and i32 %12, -4
  %33 = add i32 %32, 4
  %.087.ph = select i1 %or.cond93, i32 %12, i32 %33
  %34 = add i32 %.087.ph, 4
  %35 = tail call zeroext i16 @tvb_get_uint16(ptr noundef %0, i32 noundef %34, i32 noundef %23)
  %36 = zext i16 %35 to i32
  br label %37

37:                                               ; preds = %30, %24
  %.08795 = phi i32 [ %.087, %24 ], [ %.087.ph, %30 ]
  %.0 = phi i32 [ %29, %24 ], [ %36, %30 ]
  switch i32 %.0, label %46 [
    i32 0, label %38
    i32 2, label %40
    i32 3, label %42
    i32 4, label %44
  ]

38:                                               ; preds = %37
  %39 = tail call i32 @dissect_ndr_pointer(ptr noundef %0, i32 noundef %.08795, ptr noundef %2, ptr noundef %3, ptr noundef %4, ptr noundef %5, ptr noundef nonnull @netlogon_dissect_CLAIMS_SET_ucarray_0, i32 noundef 2, ptr noundef nonnull @.str.895, i32 noundef -1)
  br label %48

40:                                               ; preds = %37
  %41 = tail call i32 @dissect_ndr_pointer(ptr noundef %0, i32 noundef %.08795, ptr noundef %2, ptr noundef %3, ptr noundef %4, ptr noundef %5, ptr noundef nonnull @netlogon_dissect_CLAIMS_SET_ucarray_2, i32 noundef 2, ptr noundef nonnull @.str.896, i32 noundef -1)
  br label %48

42:                                               ; preds = %37
  %43 = tail call i32 @dissect_ndr_pointer(ptr noundef %0, i32 noundef %.08795, ptr noundef %2, ptr noundef %3, ptr noundef %4, ptr noundef %5, ptr noundef nonnull @netlogon_dissect_CLAIMS_SET_ucarray_3, i32 noundef 2, ptr noundef nonnull @.str.897, i32 noundef -1)
  br label %48

44:                                               ; preds = %37
  %45 = tail call i32 @dissect_ndr_pointer(ptr noundef %0, i32 noundef %.08795, ptr noundef %2, ptr noundef %3, ptr noundef %4, ptr noundef %5, ptr noundef nonnull @netlogon_dissect_CLAIMS_SET_ucarray_4, i32 noundef 2, ptr noundef nonnull @.str.898, i32 noundef -1)
  br label %48

46:                                               ; preds = %37
  %47 = tail call i32 @dissect_ndr_pointer(ptr noundef %0, i32 noundef %.08795, ptr noundef %2, ptr noundef %3, ptr noundef %4, ptr noundef %5, ptr noundef nonnull @netlogon_dissect_CLAIMS_SET_ucarray_U, i32 noundef 2, ptr noundef nonnull @.str.899, i32 noundef -1)
  br label %48

48:                                               ; preds = %46, %44, %42, %40, %38
  %.1 = phi i32 [ %47, %46 ], [ %45, %44 ], [ %43, %42 ], [ %41, %40 ], [ %39, %38 ]
  %49 = load i32, ptr @hf_netlogon_claims_compression_format, align 4
  %50 = tail call i32 @dissect_ndr_uint1632(ptr noundef %0, i32 noundef %.1, ptr noundef %2, ptr noundef %3, ptr noundef %4, ptr noundef %5, i32 noundef %49, ptr noundef null)
  %51 = load i32, ptr @hf_netlogon_claims_set_uncompressed_size, align 4
  %52 = tail call i32 @dissect_ndr_uint32(ptr noundef %0, i32 noundef %50, ptr noundef %2, ptr noundef %3, ptr noundef %4, ptr noundef %5, i32 noundef %51, ptr noundef null)
  %53 = load i32, ptr @hf_netlogon_claims_reserved_type, align 4
  %54 = tail call i32 @dissect_ndr_uint16(ptr noundef %0, i32 noundef %52, ptr noundef %2, ptr noundef %3, ptr noundef %4, ptr noundef %5, i32 noundef %53, ptr noundef null)
  %55 = load i32, ptr @hf_netlogon_claims_reserved_field_size, align 4
  %56 = tail call i32 @dissect_ndr_uint32(ptr noundef %0, i32 noundef %54, ptr noundef %2, ptr noundef %3, ptr noundef %4, ptr noundef %5, i32 noundef %55, ptr noundef null)
  %57 = tail call i32 @dissect_ndr_pointer(ptr noundef %0, i32 noundef %56, ptr noundef %2, ptr noundef %3, ptr noundef %4, ptr noundef %5, ptr noundef nonnull @netlogon_dissect_BYTE_array, i32 noundef 2, ptr noundef nonnull @.str.900, i32 noundef -1)
  br label %58

58:                                               ; preds = %6, %48
  %.086 = phi i32 [ %57, %48 ], [ %1, %6 ]
  ret i32 %.086
}